target datalayout = "e-m:e-p270:32:32-p271:32:32-p272:64:64-i64:64-i128:128-f80:128-n8:16:32:64-S128"
target triple = "x86_64-pc-linux-gnu"

@ShenandoahIUBarrier = external global i8, align 1
@ShenandoahSATBBarrier = external global i8, align 1

; Function Attrs: mustprogress nounwind uwtable
define linkonce_odr hidden noundef zeroext i1 @_Z17is_reference_type9BasicTypeb(i8 noundef zeroext %0, i1 noundef zeroext %1) #1 comdat {
  %3 = alloca i8, align 1
  %4 = alloca i8, align 1
  store i8 %0, ptr %3, align 1
  %5 = zext i1 %1 to i8
  store i8 %5, ptr %4, align 1
  %6 = load i8, ptr %3, align 1
  %7 = zext i8 %6 to i32
  %8 = icmp eq i32 %7, 12
  br i1 %8, label %22, label %9

9:                                                ; preds = %2
  %10 = load i8, ptr %3, align 1
  %11 = zext i8 %10 to i32
  %12 = icmp eq i32 %11, 13
  br i1 %12, label %22, label %13

13:                                               ; preds = %9
  %14 = load i8, ptr %4, align 1
  %15 = trunc i8 %14 to i1
  br i1 %15, label %16, label %20

16:                                               ; preds = %13
  %17 = load i8, ptr %3, align 1
  %18 = zext i8 %17 to i32
  %19 = icmp eq i32 %18, 16
  br label %20

20:                                               ; preds = %16, %13
  %21 = phi i1 [ false, %13 ], [ %19, %16 ]
  br label %22

22:                                               ; preds = %20, %9, %2
  %23 = phi i1 [ true, %9 ], [ true, %2 ], [ %21, %20 ]
  ret i1 %23
}

; Function Attrs: mustprogress nounwind uwtable
define hidden noundef zeroext i1 @_ZNK22ShenandoahBarrierSetC231array_copy_requires_gc_barriersEb9BasicTypebbN12BarrierSetC214ArrayCopyPhaseE(ptr noundef nonnull align 8 dereferenceable(8) %0, i1 noundef zeroext %1, i8 noundef zeroext %2, i1 noundef zeroext %3, i1 noundef zeroext %4, i32 noundef %5) unnamed_addr #1 align 2 {
  %7 = alloca i1, align 1
  %8 = alloca ptr, align 8
  %9 = alloca i8, align 1
  %10 = alloca i8, align 1
  %11 = alloca i8, align 1
  %12 = alloca i8, align 1
  %13 = alloca i32, align 4
  %14 = alloca i8, align 1
  store ptr %0, ptr %8, align 8
  %15 = zext i1 %1 to i8
  store i8 %15, ptr %9, align 1
  store i8 %2, ptr %10, align 1
  %16 = zext i1 %3 to i8
  store i8 %16, ptr %11, align 1
  %17 = zext i1 %4 to i8
  store i8 %17, ptr %12, align 1
  store i32 %5, ptr %13, align 4
  %18 = load i8, ptr %10, align 1
  %19 = call noundef zeroext i1 @_Z17is_reference_type9BasicTypeb(i8 noundef zeroext %18, i1 noundef zeroext false)
  %20 = zext i1 %19 to i8
  store i8 %20, ptr %14, align 1
  %21 = load i8, ptr %14, align 1
  %22 = trunc i8 %21 to i1
  br i1 %22, label %24, label %23

23:                                               ; preds = %6
  store i1 false, ptr %7, align 1
  br label %46

24:                                               ; preds = %6
  %25 = load i8, ptr @ShenandoahSATBBarrier, align 1
  %26 = trunc i8 %25 to i1
  br i1 %26, label %27, label %38

27:                                               ; preds = %24
  %28 = load i8, ptr %9, align 1
  %29 = trunc i8 %28 to i1
  br i1 %29, label %30, label %38

30:                                               ; preds = %27
  %31 = load i32, ptr %13, align 4
  %32 = icmp eq i32 %31, 1
  br i1 %32, label %33, label %34

33:                                               ; preds = %30
  store i1 false, ptr %7, align 1
  br label %46

34:                                               ; preds = %30
  %35 = load i8, ptr %11, align 1
  %36 = trunc i8 %35 to i1
  %37 = xor i1 %36, true
  store i1 %37, ptr %7, align 1
  br label %46

38:                                               ; preds = %27, %24
  %39 = load i32, ptr %13, align 4
  %40 = icmp eq i32 %39, 1
  br i1 %40, label %41, label %45

41:                                               ; preds = %38
  %42 = load i8, ptr @ShenandoahIUBarrier, align 1
  %43 = trunc i8 %42 to i1
  %44 = xor i1 %43, true
  store i1 %44, ptr %7, align 1
  br label %46

45:                                               ; preds = %38
  store i1 true, ptr %7, align 1
  br label %46

46:                                               ; preds = %45, %41, %34, %33, %23
  %47 = load i1, ptr %7, align 1
  ret i1 %47
}