; Function Attrs: mustprogress nofree norecurse nosync nounwind willreturn memory(read, argmem: none, inaccessiblemem: none) uwtable
define hidden noundef zeroext i1 @_ZNK22ShenandoahBarrierSetC231array_copy_requires_gc_barriersEb9BasicTypebbN12BarrierSetC214ArrayCopyPhaseE(ptr nocapture nonnull readnone align 8 %0, i1 noundef zeroext %1, i8 noundef zeroext %2, i1 noundef zeroext %3, i1 zeroext %4, i32 noundef %5) unnamed_addr #6 align 2 {
  %7 = and i8 %2, -2
  %or.cond.i = icmp eq i8 %7, 12
  br i1 %or.cond.i, label %8, label %_Z17is_reference_type9BasicTypeb.exit

8:                                                ; preds = %6
  %9 = load i8, ptr @ShenandoahSATBBarrier, align 1
  %10 = trunc i8 %9 to i1
  %brmerge.demorgan = and i1 %10, %1
  br i1 %brmerge.demorgan, label %11, label %14

11:                                               ; preds = %8
  %12 = icmp ne i32 %5, 1
  %13 = xor i1 %3, true
  %spec.select = and i1 %12, %13
  br label %_Z17is_reference_type9BasicTypeb.exit

14:                                               ; preds = %8
  %15 = icmp eq i32 %5, 1
  br i1 %15, label %16, label %_Z17is_reference_type9BasicTypeb.exit

16:                                               ; preds = %14
  %17 = load i8, ptr @ShenandoahIUBarrier, align 1
  %18 = trunc i8 %17 to i1
  %19 = xor i1 %18, true
  br label %_Z17is_reference_type9BasicTypeb.exit

_Z17is_reference_type9BasicTypeb.exit:            ; preds = %6, %11, %14, %16
  %.0 = phi i1 [ %19, %16 ], [ true, %14 ], [ %spec.select, %11 ], [ false, %6 ]
  ret i1 %.0
}